; ModuleID = '54/328.c'
source_filename = "54/328.c"
target datalayout = "e-m:e-p270:32:32-p271:32:32-p272:64:64-i64:64-f80:128-n8:16:32:64-S128"
target triple = "x86_64-pc-linux-gnu"

@.str = private unnamed_addr constant [5 x i8] c"%d%d\00", align 1
@.str.1 = private unnamed_addr constant [3 x i8] c"%d\00", align 1
@.str.2 = private unnamed_addr constant [2 x i8] c"7\00", align 1

; Function Attrs: noinline nounwind uwtable
define dso_local void @main() #0 {
  %1 = alloca i32, align 4
  %2 = alloca i32, align 4
  %3 = alloca i32, align 4
  %4 = alloca i32, align 4
  %5 = alloca i32, align 4
  %6 = alloca i32, align 4
  %7 = call i32 (i8*, ...) @__isoc99_scanf(i8* getelementptr inbounds ([5 x i8], [5 x i8]* @.str, i64 0, i64 0), i32* %3, i32* %4)
  store i32 1, i32* %1, align 4
  store i32 1, i32* %5, align 4
  %8 = load i32, i32* %1, align 4
  %9 = load i32, i32* %3, align 4
  %10 = mul nsw i32 %8, %9
  %11 = load i32, i32* %4, align 4
  %12 = add nsw i32 %10, %11
  store i32 %12, i32* %6, align 4
  %13 = load i32, i32* %3, align 4
  %14 = icmp sgt i32 %13, 2
  br i1 %14, label %15, label %52

15:                                               ; preds = %0
  store i32 1, i32* %2, align 4
  br label %16

16:                                               ; preds = %46, %15
  %17 = load i32, i32* %2, align 4
  %18 = load i32, i32* %3, align 4
  %19 = icmp sle i32 %17, %18
  br i1 %19, label %20, label %49

20:                                               ; preds = %16
  %21 = load i32, i32* %6, align 4
  %22 = load i32, i32* %3, align 4
  %23 = sub nsw i32 %22, 1
  %24 = srem i32 %21, %23
  %25 = icmp eq i32 %24, 0
  br i1 %25, label %26, label %36

26:                                               ; preds = %20
  %27 = load i32, i32* %6, align 4
  %28 = load i32, i32* %3, align 4
  %29 = sub nsw i32 %28, 1
  %30 = sdiv i32 %27, %29
  store i32 %30, i32* %1, align 4
  %31 = load i32, i32* %1, align 4
  %32 = load i32, i32* %3, align 4
  %33 = mul nsw i32 %31, %32
  %34 = load i32, i32* %4, align 4
  %35 = add nsw i32 %33, %34
  store i32 %35, i32* %6, align 4
  br label %45

36:                                               ; preds = %20
  %37 = load i32, i32* %5, align 4
  %38 = add nsw i32 %37, 1
  store i32 %38, i32* %1, align 4
  %39 = load i32, i32* %1, align 4
  store i32 %39, i32* %5, align 4
  store i32 1, i32* %2, align 4
  %40 = load i32, i32* %1, align 4
  %41 = load i32, i32* %3, align 4
  %42 = mul nsw i32 %40, %41
  %43 = load i32, i32* %4, align 4
  %44 = add nsw i32 %42, %43
  store i32 %44, i32* %6, align 4
  br label %45

45:                                               ; preds = %36, %26
  br label %46

46:                                               ; preds = %45
  %47 = load i32, i32* %2, align 4
  %48 = add nsw i32 %47, 1
  store i32 %48, i32* %2, align 4
  br label %16

49:                                               ; preds = %16
  %50 = load i32, i32* %6, align 4
  %51 = call i32 (i8*, ...) @printf(i8* getelementptr inbounds ([3 x i8], [3 x i8]* @.str.1, i64 0, i64 0), i32 %50)
  br label %54

52:                                               ; preds = %0
  %53 = call i32 (i8*, ...) @printf(i8* getelementptr inbounds ([2 x i8], [2 x i8]* @.str.2, i64 0, i64 0))
  br label %54

54:                                               ; preds = %52, %49
  ret void
}

declare dso_local i32 @__isoc99_scanf(i8*, ...) #1

declare dso_local i32 @printf(i8*, ...) #1


!llvm.module.flags = !{!0}
!llvm.ident = !{!1}

!0 = !{i32 1, !"wchar_size", i32 4}
!1 = !{!"clang version 10.0.0-4ubuntu1 "}
